target datalayout = "e-m:e-p270:32:32-p271:32:32-p272:64:64-i64:64-i128:128-f80:128-n8:16:32:64-S128"
target triple = "x86_64-pc-linux-gnu"

%struct.commit_list = type { ptr, ptr }

; Function Attrs: nounwind uwtable
define dso_local ptr @pop_commit(ptr noundef %0) #0 {
  %2 = alloca ptr, align 8
  %3 = alloca ptr, align 8
  %4 = alloca ptr, align 8
  store ptr %0, ptr %2, align 8, !tbaa !99
  call void @llvm.lifetime.start.p0(i64 8, ptr %3) #11
  %5 = load ptr, ptr %2, align 8, !tbaa !99
  %6 = load ptr, ptr %5, align 8, !tbaa !58
  store ptr %6, ptr %3, align 8, !tbaa !58
  call void @llvm.lifetime.start.p0(i64 8, ptr %4) #11
  %7 = load ptr, ptr %3, align 8, !tbaa !58
  %8 = icmp ne ptr %7, null
  br i1 %8, label %9, label %13

9:                                                ; preds = %1
  %10 = load ptr, ptr %3, align 8, !tbaa !58
  %11 = getelementptr inbounds nuw %struct.commit_list, ptr %10, i32 0, i32 0
  %12 = load ptr, ptr %11, align 8, !tbaa !105
  br label %14

13:                                               ; preds = %1
  br label %14

14:                                               ; preds = %13, %9
  %15 = phi ptr [ %12, %9 ], [ null, %13 ]
  store ptr %15, ptr %4, align 8, !tbaa !17
  %16 = load ptr, ptr %3, align 8, !tbaa !58
  %17 = icmp ne ptr %16, null
  br i1 %17, label %18, label %24

18:                                               ; preds = %14
  %19 = load ptr, ptr %3, align 8, !tbaa !58
  %20 = getelementptr inbounds nuw %struct.commit_list, ptr %19, i32 0, i32 1
  %21 = load ptr, ptr %20, align 8, !tbaa !107
  %22 = load ptr, ptr %2, align 8, !tbaa !99
  store ptr %21, ptr %22, align 8, !tbaa !58
  %23 = load ptr, ptr %3, align 8, !tbaa !58
  call void @free(ptr noundef %23) #11
  br label %24

24:                                               ; preds = %18, %14
  %25 = load ptr, ptr %4, align 8, !tbaa !17
  call void @llvm.lifetime.end.p0(i64 8, ptr %4) #11
  call void @llvm.lifetime.end.p0(i64 8, ptr %3) #11
  ret ptr %25
}

; Function Attrs: nounwind uwtable
define dso_local void @free_commit_list(ptr noundef %0) #0 {
  %2 = alloca ptr, align 8
  store ptr %0, ptr %2, align 8, !tbaa !58
  br label %3

3:                                                ; preds = %6, %1
  %4 = load ptr, ptr %2, align 8, !tbaa !58
  %5 = icmp ne ptr %4, null
  br i1 %5, label %6, label %8

6:                                                ; preds = %3
  %7 = call ptr @pop_commit(ptr noundef %2)
  br label %3, !llvm.loop !59

8:                                                ; preds = %3
  ret void
}