; Function Attrs: nounwind uwtable
define dso_local void @free_commit_list(ptr noundef %0) local_unnamed_addr #0 {
  %.not2 = icmp eq ptr %0, null
  br i1 %.not2, label %._crit_edge, label %pop_commit.exit

pop_commit.exit:                                  ; preds = %1, %pop_commit.exit
  %.03 = phi ptr [ %3, %pop_commit.exit ], [ %0, %1 ]
  %2 = getelementptr inbounds nuw i8, ptr %.03, i64 8
  %3 = load ptr, ptr %2, align 8, !tbaa !48
  tail call void @free(ptr noundef nonnull %.03) #24
  %.not = icmp eq ptr %3, null
  br i1 %.not, label %._crit_edge, label %pop_commit.exit, !llvm.loop !51

._crit_edge:                                      ; preds = %pop_commit.exit, %1
  ret void
}